target datalayout = "e-m:e-p270:32:32-p271:32:32-p272:64:64-i64:64-i128:128-f80:128-n8:16:32:64-S128"
target triple = "x86_64-pc-linux-gnu"

%struct.PopulateArrayContext = type { ptr, ptr, ptr, ptr, ptr, ptr, ptr, i32, ptr }

@.str.2 = private unnamed_addr constant [12 x i8] c"jsonfuncs.c\00", align 1
@.str.74 = private unnamed_addr constant [21 x i8] c"malformed JSON array\00", align 1
@.str.75 = private unnamed_addr constant [71 x i8] c"Multidimensional arrays must have sub-arrays with matching dimensions.\00", align 1
@__func__.populate_array_check_dimension = private unnamed_addr constant [31 x i8] c"populate_array_check_dimension\00", align 1

; Function Attrs: nounwind uwtable
define internal zeroext i1 @populate_array_check_dimension(ptr noundef %0, i32 noundef %1) #0 {
  %3 = alloca i1, align 1
  %4 = alloca ptr, align 8
  %5 = alloca i32, align 4
  %6 = alloca i32, align 4
  %7 = alloca ptr, align 8
  %8 = alloca i32, align 4
  store ptr %0, ptr %4, align 8
  store i32 %1, ptr %5, align 4
  call void @llvm.lifetime.start.p0(i64 4, ptr %6) #10
  %9 = load ptr, ptr %4, align 8
  %10 = getelementptr inbounds nuw %struct.PopulateArrayContext, ptr %9, i32 0, i32 6
  %11 = load ptr, ptr %10, align 8
  %12 = load i32, ptr %5, align 4
  %13 = sext i32 %12 to i64
  %14 = getelementptr inbounds i32, ptr %11, i64 %13
  %15 = load i32, ptr %14, align 4
  store i32 %15, ptr %6, align 4
  %16 = load ptr, ptr %4, align 8
  %17 = getelementptr inbounds nuw %struct.PopulateArrayContext, ptr %16, i32 0, i32 5
  %18 = load ptr, ptr %17, align 8
  %19 = load i32, ptr %5, align 4
  %20 = sext i32 %19 to i64
  %21 = getelementptr inbounds i32, ptr %18, i64 %20
  %22 = load i32, ptr %21, align 4
  %23 = icmp eq i32 %22, -1
  br i1 %23, label %24, label %32

24:                                               ; preds = %2
  %25 = load i32, ptr %6, align 4
  %26 = load ptr, ptr %4, align 8
  %27 = getelementptr inbounds nuw %struct.PopulateArrayContext, ptr %26, i32 0, i32 5
  %28 = load ptr, ptr %27, align 8
  %29 = load i32, ptr %5, align 4
  %30 = sext i32 %29 to i64
  %31 = getelementptr inbounds i32, ptr %28, i64 %30
  store i32 %25, ptr %31, align 4
  br label %61

32:                                               ; preds = %2
  %33 = load ptr, ptr %4, align 8
  %34 = getelementptr inbounds nuw %struct.PopulateArrayContext, ptr %33, i32 0, i32 5
  %35 = load ptr, ptr %34, align 8
  %36 = load i32, ptr %5, align 4
  %37 = sext i32 %36 to i64
  %38 = getelementptr inbounds i32, ptr %35, i64 %37
  %39 = load i32, ptr %38, align 4
  %40 = load i32, ptr %6, align 4
  %41 = icmp ne i32 %39, %40
  br i1 %41, label %42, label %60

42:                                               ; preds = %32
  br label %43

43:                                               ; preds = %42
  br label %44

44:                                               ; preds = %43
  call void @llvm.lifetime.start.p0(i64 8, ptr %7) #10
  %45 = load ptr, ptr %4, align 8
  %46 = getelementptr inbounds nuw %struct.PopulateArrayContext, ptr %45, i32 0, i32 8
  %47 = load ptr, ptr %46, align 8
  store ptr %47, ptr %7, align 8
  %48 = load ptr, ptr %7, align 8
  %49 = call zeroext i1 @errsave_start(ptr noundef %48, ptr noundef null)
  br i1 %49, label %50, label %55

50:                                               ; preds = %44
  %51 = call i32 @errcode(i32 noundef 33685634)
  %52 = call i32 (ptr, ...) @errmsg(ptr noundef @.str.74)
  %53 = call i32 (ptr, ...) @errdetail(ptr noundef @.str.75)
  %54 = load ptr, ptr %7, align 8
  call void @errsave_finish(ptr noundef %54, ptr noundef @.str.2, i32 noundef 2600, ptr noundef @__func__.populate_array_check_dimension)
  br label %55

55:                                               ; preds = %50, %44
  call void @llvm.lifetime.end.p0(i64 8, ptr %7) #10
  br label %56

56:                                               ; preds = %55
  br label %57

57:                                               ; preds = %56
  store i1 false, ptr %3, align 1
  store i32 1, ptr %8, align 4
  br label %81

58:                                               ; No predecessors!
  br label %59

59:                                               ; preds = %58
  br label %60

60:                                               ; preds = %59, %32
  br label %61

61:                                               ; preds = %60, %24
  %62 = load ptr, ptr %4, align 8
  %63 = getelementptr inbounds nuw %struct.PopulateArrayContext, ptr %62, i32 0, i32 6
  %64 = load ptr, ptr %63, align 8
  %65 = load i32, ptr %5, align 4
  %66 = sext i32 %65 to i64
  %67 = getelementptr inbounds i32, ptr %64, i64 %66
  store i32 0, ptr %67, align 4
  %68 = load i32, ptr %5, align 4
  %69 = icmp sgt i32 %68, 0
  br i1 %69, label %70, label %80

70:                                               ; preds = %61
  %71 = load ptr, ptr %4, align 8
  %72 = getelementptr inbounds nuw %struct.PopulateArrayContext, ptr %71, i32 0, i32 6
  %73 = load ptr, ptr %72, align 8
  %74 = load i32, ptr %5, align 4
  %75 = sub i32 %74, 1
  %76 = sext i32 %75 to i64
  %77 = getelementptr inbounds i32, ptr %73, i64 %76
  %78 = load i32, ptr %77, align 4
  %79 = add i32 %78, 1
  store i32 %79, ptr %77, align 4
  br label %80

80:                                               ; preds = %70, %61
  store i1 true, ptr %3, align 1
  store i32 1, ptr %8, align 4
  br label %81

81:                                               ; preds = %80, %57
  call void @llvm.lifetime.end.p0(i64 4, ptr %6) #10
  %82 = load i1, ptr %3, align 1
  ret i1 %82
}