; Function Attrs: nounwind uwtable
define internal fastcc noundef zeroext i1 @populate_array_check_dimension(ptr noundef readonly captures(none) %0, i32 noundef %1) unnamed_addr #0 {
  %3 = getelementptr inbounds nuw i8, ptr %0, i64 48
  %4 = load ptr, ptr %3, align 8
  %5 = sext i32 %1 to i64
  %6 = getelementptr inbounds i32, ptr %4, i64 %5
  %7 = load i32, ptr %6, align 4
  %8 = getelementptr inbounds nuw i8, ptr %0, i64 40
  %9 = load ptr, ptr %8, align 8
  %10 = getelementptr inbounds i32, ptr %9, i64 %5
  %11 = load i32, ptr %10, align 4
  %12 = icmp eq i32 %11, -1
  br i1 %12, label %13, label %14

13:                                               ; preds = %2
  store i32 %7, ptr %10, align 4
  %.pre = load ptr, ptr %3, align 8
  br label %23

14:                                               ; preds = %2
  %.not = icmp eq i32 %11, %7
  br i1 %.not, label %23, label %15

15:                                               ; preds = %14
  %16 = getelementptr inbounds nuw i8, ptr %0, i64 64
  %17 = load ptr, ptr %16, align 8
  %18 = tail call zeroext i1 @errsave_start(ptr noundef %17, ptr noundef null) #15
  br i1 %18, label %19, label %34

19:                                               ; preds = %15
  %20 = tail call i32 @errcode(i32 noundef 33685634) #15
  %21 = tail call i32 (ptr, ...) @errmsg(ptr noundef nonnull @.str.74) #15
  %22 = tail call i32 (ptr, ...) @errdetail(ptr noundef nonnull @.str.75) #15
  tail call void @errsave_finish(ptr noundef %17, ptr noundef nonnull @.str.2, i32 noundef 2600, ptr noundef nonnull @__func__.populate_array_check_dimension) #15
  br label %34

23:                                               ; preds = %14, %13
  %24 = phi ptr [ %4, %14 ], [ %.pre, %13 ]
  %25 = getelementptr inbounds i32, ptr %24, i64 %5
  store i32 0, ptr %25, align 4
  %26 = icmp sgt i32 %1, 0
  br i1 %26, label %27, label %34

27:                                               ; preds = %23
  %28 = load ptr, ptr %3, align 8
  %29 = zext nneg i32 %1 to i64
  %30 = getelementptr i32, ptr %28, i64 %29
  %31 = getelementptr i8, ptr %30, i64 -4
  %32 = load i32, ptr %31, align 4
  %33 = add i32 %32, 1
  store i32 %33, ptr %31, align 4
  br label %34

34:                                               ; preds = %23, %27, %15, %19
  %.0 = phi i1 [ false, %19 ], [ false, %15 ], [ true, %27 ], [ true, %23 ]
  ret i1 %.0
}